target datalayout = "e-m:e-p270:32:32-p271:32:32-p272:64:64-i64:64-i128:128-f80:128-n8:16:32:64-S128"
target triple = "x86_64-pc-linux-gnu"

%struct.If_Cut_t_ = type <{ float, float, float, float, i32, i32, i32, i64, [0 x i32] }>

@.str = private unnamed_addr constant [50 x i8] c"If_CutCheck(): Cut has wrong ordering of inputs.\0A\00", align 1

; Function Attrs: nounwind uwtable
define i32 @If_CutCheck(ptr noundef %0) #0 {
  %2 = alloca i32, align 4
  %3 = alloca ptr, align 8
  %4 = alloca i32, align 4
  %5 = alloca i32, align 4
  store ptr %0, ptr %3, align 8, !tbaa !15
  call void @llvm.lifetime.start.p0(i64 4, ptr %4) #9
  %6 = load ptr, ptr %3, align 8, !tbaa !15
  %7 = getelementptr inbounds nuw %struct.If_Cut_t_, ptr %6, i32 0, i32 7
  %8 = load i64, ptr %7, align 4
  %9 = lshr i64 %8, 24
  %10 = and i64 %9, 255
  %11 = trunc i64 %10 to i32
  %12 = icmp slt i32 %11, 2
  br i1 %12, label %13, label %14

13:                                               ; preds = %1
  store i32 1, ptr %2, align 4
  store i32 1, ptr %5, align 4
  br label %45

14:                                               ; preds = %1
  store i32 1, ptr %4, align 4, !tbaa !8
  br label %15

15:                                               ; preds = %41, %14
  %16 = load i32, ptr %4, align 4, !tbaa !8
  %17 = load ptr, ptr %3, align 8, !tbaa !15
  %18 = getelementptr inbounds nuw %struct.If_Cut_t_, ptr %17, i32 0, i32 7
  %19 = load i64, ptr %18, align 4
  %20 = lshr i64 %19, 24
  %21 = and i64 %20, 255
  %22 = trunc i64 %21 to i32
  %23 = icmp slt i32 %16, %22
  br i1 %23, label %24, label %44

24:                                               ; preds = %15
  %25 = load ptr, ptr %3, align 8, !tbaa !15
  %26 = getelementptr inbounds nuw %struct.If_Cut_t_, ptr %25, i32 0, i32 8
  %27 = load i32, ptr %4, align 4, !tbaa !8
  %28 = sub nsw i32 %27, 1
  %29 = sext i32 %28 to i64
  %30 = getelementptr inbounds [0 x i32], ptr %26, i64 0, i64 %29
  %31 = load i32, ptr %30, align 4, !tbaa !8
  %32 = load ptr, ptr %3, align 8, !tbaa !15
  %33 = getelementptr inbounds nuw %struct.If_Cut_t_, ptr %32, i32 0, i32 8
  %34 = load i32, ptr %4, align 4, !tbaa !8
  %35 = sext i32 %34 to i64
  %36 = getelementptr inbounds [0 x i32], ptr %33, i64 0, i64 %35
  %37 = load i32, ptr %36, align 4, !tbaa !8
  %38 = icmp sge i32 %31, %37
  br i1 %38, label %39, label %40

39:                                               ; preds = %24
  call void (i32, ptr, ...) @Abc_Print(i32 noundef -1, ptr noundef @.str)
  store i32 0, ptr %2, align 4
  store i32 1, ptr %5, align 4
  br label %45

40:                                               ; preds = %24
  br label %41

41:                                               ; preds = %40
  %42 = load i32, ptr %4, align 4, !tbaa !8
  %43 = add nsw i32 %42, 1
  store i32 %43, ptr %4, align 4, !tbaa !8
  br label %15, !llvm.loop !94

44:                                               ; preds = %15
  store i32 1, ptr %2, align 4
  store i32 1, ptr %5, align 4
  br label %45

45:                                               ; preds = %44, %39, %13
  call void @llvm.lifetime.end.p0(i64 4, ptr %4) #9
  %46 = load i32, ptr %2, align 4
  ret i32 %46
}