; Function Attrs: nounwind uwtable
define range(i32 0, 2) i32 @If_CutCheck(ptr noundef readonly captures(none) %0) local_unnamed_addr #0 {
  %2 = getelementptr inbounds nuw i8, ptr %0, i64 28
  %3 = load i64, ptr %2, align 4
  %4 = and i64 %3, 4261412864
  %5 = icmp eq i64 %4, 0
  br i1 %5, label %.loopexit, label %.lr.ph

.lr.ph:                                           ; preds = %1
  %6 = lshr i64 %3, 24
  %7 = getelementptr inbounds nuw i8, ptr %0, i64 36
  %wide.trip.count = and i64 %6, 255
  %.pre = load i32, ptr %7, align 4, !tbaa !14
  br label %9

8:                                                ; preds = %9
  %indvars.iv.next = add nuw nsw i64 %indvars.iv, 1
  %exitcond.not = icmp eq i64 %indvars.iv.next, %wide.trip.count
  br i1 %exitcond.not, label %.loopexit, label %9, !llvm.loop !86

9:                                                ; preds = %.lr.ph, %8
  %10 = phi i32 [ %.pre, %.lr.ph ], [ %12, %8 ]
  %indvars.iv = phi i64 [ 1, %.lr.ph ], [ %indvars.iv.next, %8 ]
  %11 = getelementptr inbounds nuw [0 x i32], ptr %7, i64 0, i64 %indvars.iv
  %12 = load i32, ptr %11, align 4, !tbaa !14
  %.not = icmp slt i32 %10, %12
  br i1 %.not, label %8, label %13

13:                                               ; preds = %9
  tail call void (i32, ptr, ...) @Abc_Print(i32 noundef -1, ptr noundef nonnull @.str)
  br label %.loopexit

.loopexit:                                        ; preds = %8, %1, %13
  %.08 = phi i32 [ 0, %13 ], [ 1, %1 ], [ 1, %8 ]
  ret i32 %.08
}